target datalayout = "e-m:e-p270:32:32-p271:32:32-p272:64:64-i64:64-i128:128-f80:128-n8:16:32:64-S128"
target triple = "x86_64-pc-linux-gnu"

%struct.CK_MECHANISM = type { i64, ptr, i64 }
%struct.CK_SSL3_RANDOM_DATA = type { ptr, i64, ptr, i64 }
%struct.CK_SSL3_KEY_MAT_PARAMS = type { i64, i64, i64, i8, %struct.CK_SSL3_RANDOM_DATA, ptr }

@.str.11 = private unnamed_addr constant [51 x i8] c"sun/security/pkcs11/wrapper/CK_SSL3_KEY_MAT_PARAMS\00", align 1

; Function Attrs: nounwind uwtable
define hidden void @ssl3CopyBackKeyMatParams(ptr noundef %0, ptr noundef %1, ptr noundef %2) #0 {
  %4 = alloca ptr, align 8
  %5 = alloca ptr, align 8
  %6 = alloca ptr, align 8
  %7 = alloca ptr, align 8
  store ptr %0, ptr %4, align 8
  store ptr %1, ptr %5, align 8
  store ptr %2, ptr %6, align 8
  %8 = load ptr, ptr %5, align 8
  %9 = getelementptr inbounds %struct.CK_MECHANISM, ptr %8, i32 0, i32 1
  %10 = load ptr, ptr %9, align 8
  store ptr %10, ptr %7, align 8
  %11 = load ptr, ptr %7, align 8
  %12 = icmp ne ptr %11, null
  br i1 %12, label %13, label %22

13:                                               ; preds = %3
  %14 = load ptr, ptr %4, align 8
  %15 = load ptr, ptr %5, align 8
  %16 = load ptr, ptr %6, align 8
  %17 = load ptr, ptr %7, align 8
  %18 = getelementptr inbounds %struct.CK_SSL3_KEY_MAT_PARAMS, ptr %17, i32 0, i32 4
  %19 = load ptr, ptr %7, align 8
  %20 = getelementptr inbounds %struct.CK_SSL3_KEY_MAT_PARAMS, ptr %19, i32 0, i32 5
  %21 = load ptr, ptr %20, align 8
  call void @copyBackKeyMatParams(ptr noundef %14, ptr noundef %15, ptr noundef %16, ptr noundef %18, ptr noundef %21, ptr noundef @.str.11)
  br label %22

22:                                               ; preds = %13, %3
  ret void
}