; Function Attrs: nounwind uwtable
define hidden void @ssl3CopyBackKeyMatParams(ptr noundef %0, ptr nocapture noundef readonly %1, ptr noundef %2) local_unnamed_addr #0 {
  %4 = getelementptr inbounds i8, ptr %1, i64 8
  %5 = load ptr, ptr %4, align 8
  %.not = icmp eq ptr %5, null
  br i1 %.not, label %9, label %6

6:                                                ; preds = %3
  %7 = getelementptr inbounds i8, ptr %5, i64 64
  %8 = load ptr, ptr %7, align 8
  tail call fastcc void @copyBackKeyMatParams(ptr noundef %0, ptr noundef nonnull %1, ptr noundef %2, ptr noundef %8, ptr noundef nonnull @.str.11)
  br label %9

9:                                                ; preds = %6, %3
  ret void
}